target datalayout = "e-m:e-p270:32:32-p271:32:32-p272:64:64-i64:64-i128:128-f80:128-n8:16:32:64-S128"
target triple = "x86_64-pc-linux-gnu"

%struct._php_stream = type { ptr, ptr, %struct._php_stream_filter_chain, %struct._php_stream_filter_chain, ptr, ptr, %struct._zval_struct, i16, [16 x i8], i32, ptr, ptr, ptr, ptr, i64, ptr, i64, i64, i64, i64, ptr }
%struct._php_stream_filter_chain = type { ptr, ptr, ptr }
%struct._zval_struct = type { %union._zend_value, %union.anon, %union.anon.2 }
%union._zend_value = type { i64 }
%union.anon = type { i32 }
%union.anon.2 = type { i32 }
%struct.php_stream_temp_data = type { ptr, i64, i32, %struct._zval_struct, ptr }

; Function Attrs: nounwind uwtable
define internal i32 @php_stream_temp_seek(ptr noundef %0, i64 noundef %1, i32 noundef %2, ptr noundef %3) #0 {
  %5 = alloca i32, align 4
  %6 = alloca ptr, align 8
  %7 = alloca i64, align 8
  %8 = alloca i32, align 4
  %9 = alloca ptr, align 8
  %10 = alloca ptr, align 8
  %11 = alloca i32, align 4
  store ptr %0, ptr %6, align 8
  store i64 %1, ptr %7, align 8
  store i32 %2, ptr %8, align 4
  store ptr %3, ptr %9, align 8
  %12 = load ptr, ptr %6, align 8
  %13 = getelementptr inbounds %struct._php_stream, ptr %12, i32 0, i32 1
  %14 = load ptr, ptr %13, align 8
  store ptr %14, ptr %10, align 8
  %15 = load ptr, ptr %10, align 8
  %16 = getelementptr inbounds %struct.php_stream_temp_data, ptr %15, i32 0, i32 0
  %17 = load ptr, ptr %16, align 8
  %18 = icmp ne ptr %17, null
  br i1 %18, label %21, label %19

19:                                               ; preds = %4
  %20 = load ptr, ptr %9, align 8
  store i64 -1, ptr %20, align 8
  store i32 -1, ptr %5, align 4
  br label %48

21:                                               ; preds = %4
  %22 = load ptr, ptr %10, align 8
  %23 = getelementptr inbounds %struct.php_stream_temp_data, ptr %22, i32 0, i32 0
  %24 = load ptr, ptr %23, align 8
  %25 = load i64, ptr %7, align 8
  %26 = load i32, ptr %8, align 4
  %27 = call i32 @_php_stream_seek(ptr noundef %24, i64 noundef %25, i32 noundef %26)
  store i32 %27, ptr %11, align 4
  %28 = load ptr, ptr %10, align 8
  %29 = getelementptr inbounds %struct.php_stream_temp_data, ptr %28, i32 0, i32 0
  %30 = load ptr, ptr %29, align 8
  %31 = call i64 @_php_stream_tell(ptr noundef %30)
  %32 = load ptr, ptr %9, align 8
  store i64 %31, ptr %32, align 8
  %33 = load ptr, ptr %10, align 8
  %34 = getelementptr inbounds %struct.php_stream_temp_data, ptr %33, i32 0, i32 0
  %35 = load ptr, ptr %34, align 8
  %36 = getelementptr inbounds %struct._php_stream, ptr %35, i32 0, i32 7
  %37 = load i16, ptr %36, align 8
  %38 = lshr i16 %37, 3
  %39 = and i16 %38, 1
  %40 = load ptr, ptr %6, align 8
  %41 = getelementptr inbounds %struct._php_stream, ptr %40, i32 0, i32 7
  %42 = load i16, ptr %41, align 8
  %43 = and i16 %39, 1
  %44 = shl i16 %43, 3
  %45 = and i16 %42, -9
  %46 = or i16 %45, %44
  store i16 %46, ptr %41, align 8
  %47 = load i32, ptr %11, align 4
  store i32 %47, ptr %5, align 4
  br label %48

48:                                               ; preds = %21, %19
  %49 = load i32, ptr %5, align 4
  ret i32 %49
}