; Function Attrs: nounwind uwtable
define internal i32 @php_stream_temp_seek(ptr nocapture noundef %0, i64 noundef %1, i32 noundef %2, ptr nocapture noundef writeonly %3) #0 {
  %5 = getelementptr inbounds i8, ptr %0, i64 8
  %6 = load ptr, ptr %5, align 8
  %7 = load ptr, ptr %6, align 8
  %.not = icmp eq ptr %7, null
  br i1 %.not, label %8, label %9

8:                                                ; preds = %4
  store i64 -1, ptr %3, align 8
  br label %21

9:                                                ; preds = %4
  %10 = tail call i32 @_php_stream_seek(ptr noundef nonnull %7, i64 noundef %1, i32 noundef %2) #20
  %11 = load ptr, ptr %6, align 8
  %12 = tail call i64 @_php_stream_tell(ptr noundef %11) #20
  store i64 %12, ptr %3, align 8
  %13 = load ptr, ptr %6, align 8
  %14 = getelementptr inbounds i8, ptr %13, i64 96
  %15 = load i16, ptr %14, align 8
  %16 = and i16 %15, 8
  %17 = getelementptr inbounds i8, ptr %0, i64 96
  %18 = load i16, ptr %17, align 8
  %19 = and i16 %18, -9
  %20 = or disjoint i16 %19, %16
  store i16 %20, ptr %17, align 8
  br label %21

21:                                               ; preds = %9, %8
  %.0 = phi i32 [ %10, %9 ], [ -1, %8 ]
  ret i32 %.0
}